target datalayout = "e-m:e-p270:32:32-p271:32:32-p272:64:64-i64:64-i128:128-f80:128-n8:16:32:64-S128"
target triple = "x86_64-pc-linux-gnu"

%class.Type.base = type <{ ptr, ptr, i32 }>
%class.TypeD = type { %class.Type.base, double }

@_ZN4Type6DOUBLEE = external global ptr, align 8

; Function Attrs: mustprogress nounwind uwtable
define linkonce_odr noundef zeroext i1 @_ZSt5isnand(double noundef %0) #1 comdat {
  %2 = alloca double, align 8
  store double %0, ptr %2, align 8
  %3 = load double, ptr %2, align 8
  %4 = call i1 @llvm.is.fpclass.f64(double %3, i32 3)
  ret i1 %4
}

; Function Attrs: mustprogress nounwind uwtable
define linkonce_odr noundef zeroext i1 @_ZSt8isfinited(double noundef %0) #1 comdat {
  %2 = alloca double, align 8
  store double %0, ptr %2, align 8
  %3 = load double, ptr %2, align 8
  %4 = call i1 @llvm.is.fpclass.f64(double %3, i32 504)
  ret i1 %4
}

; Function Attrs: mustprogress nounwind uwtable
define linkonce_odr hidden noundef i32 @_Z7g_isnand(double noundef %0) #1 comdat {
  %2 = alloca double, align 8
  store double %0, ptr %2, align 8
  %3 = load double, ptr %2, align 8
  %4 = call noundef zeroext i1 @_ZSt5isnand(double noundef %3)
  %5 = zext i1 %4 to i32
  ret i32 %5
}

; Function Attrs: mustprogress nounwind uwtable
define linkonce_odr hidden noundef i32 @_Z10g_isfinited(double noundef %0) #1 comdat {
  %2 = alloca double, align 8
  store double %0, ptr %2, align 8
  %3 = load double, ptr %2, align 8
  %4 = call noundef zeroext i1 @_ZSt8isfinited(double noundef %3)
  %5 = zext i1 %4 to i32
  ret i32 %5
}

; Function Attrs: mustprogress nounwind uwtable
define linkonce_odr hidden noundef double @_ZNK4Type4getdEv(ptr noundef nonnull align 8 dereferenceable(20) %0) #1 comdat align 2 {
  %2 = alloca ptr, align 8
  store ptr %0, ptr %2, align 8
  %3 = load ptr, ptr %2, align 8
  %4 = getelementptr inbounds %class.TypeD, ptr %3, i32 0, i32 1
  %5 = load double, ptr %4, align 8
  ret double %5
}

; Function Attrs: mustprogress nounwind uwtable
define hidden noundef ptr @_ZNK8SubDNode3subEPK4TypeS2_(ptr noundef nonnull align 8 dereferenceable(52) %0, ptr noundef %1, ptr noundef %2) unnamed_addr #1 align 2 {
  %4 = alloca ptr, align 8
  %5 = alloca ptr, align 8
  %6 = alloca ptr, align 8
  %7 = alloca ptr, align 8
  store ptr %0, ptr %5, align 8
  store ptr %1, ptr %6, align 8
  store ptr %2, ptr %7, align 8
  %8 = load ptr, ptr %6, align 8
  %9 = call noundef double @_ZNK4Type4getdEv(ptr noundef nonnull align 8 dereferenceable(20) %8)
  %10 = call noundef i32 @_Z10g_isfinited(double noundef %9)
  %11 = icmp ne i32 %10, 0
  br i1 %11, label %12, label %24

12:                                               ; preds = %3
  %13 = load ptr, ptr %7, align 8
  %14 = call noundef double @_ZNK4Type4getdEv(ptr noundef nonnull align 8 dereferenceable(20) %13)
  %15 = call noundef i32 @_Z10g_isfinited(double noundef %14)
  %16 = icmp ne i32 %15, 0
  br i1 %16, label %17, label %24

17:                                               ; preds = %12
  %18 = load ptr, ptr %6, align 8
  %19 = call noundef double @_ZNK4Type4getdEv(ptr noundef nonnull align 8 dereferenceable(20) %18)
  %20 = load ptr, ptr %7, align 8
  %21 = call noundef double @_ZNK4Type4getdEv(ptr noundef nonnull align 8 dereferenceable(20) %20)
  %22 = fsub double %19, %21
  %23 = call noundef ptr @_ZN5TypeD4makeEd(double noundef %22)
  store ptr %23, ptr %4, align 8
  br label %40

24:                                               ; preds = %12, %3
  %25 = load ptr, ptr %6, align 8
  %26 = call noundef double @_ZNK4Type4getdEv(ptr noundef nonnull align 8 dereferenceable(20) %25)
  %27 = call noundef i32 @_Z7g_isnand(double noundef %26)
  %28 = icmp ne i32 %27, 0
  br i1 %28, label %29, label %31

29:                                               ; preds = %24
  %30 = load ptr, ptr %6, align 8
  store ptr %30, ptr %4, align 8
  br label %40

31:                                               ; preds = %24
  %32 = load ptr, ptr %7, align 8
  %33 = call noundef double @_ZNK4Type4getdEv(ptr noundef nonnull align 8 dereferenceable(20) %32)
  %34 = call noundef i32 @_Z7g_isnand(double noundef %33)
  %35 = icmp ne i32 %34, 0
  br i1 %35, label %36, label %38

36:                                               ; preds = %31
  %37 = load ptr, ptr %7, align 8
  store ptr %37, ptr %4, align 8
  br label %40

38:                                               ; preds = %31
  %39 = load ptr, ptr @_ZN4Type6DOUBLEE, align 8
  store ptr %39, ptr %4, align 8
  br label %40

40:                                               ; preds = %38, %36, %29, %17
  %41 = load ptr, ptr %4, align 8
  ret ptr %41
}